target datalayout = "e-m:e-p270:32:32-p271:32:32-p272:64:64-i64:64-i128:128-f80:128-n8:16:32:64-S128"
target triple = "x86_64-pc-linux-gnu"

%"class.boost::archive::archive_exception" = type <{ %"class.std::exception", [128 x i8], i32, [4 x i8] }>
%"class.std::exception" = type { ptr }

; Function Attrs: mustprogress nounwind uwtable
define void @_ZN5boost7archive17archive_exceptionC2ERKS1_(ptr noundef nonnull align 8 dereferenceable(140) %0, ptr noundef %1, ptr noundef nonnull align 8 dereferenceable(140) %2) unnamed_addr #0 align 2 {
  %4 = alloca ptr, align 8
  %5 = alloca ptr, align 8
  %6 = alloca ptr, align 8
  store ptr %0, ptr %4, align 8, !tbaa !3
  store ptr %1, ptr %5, align 8, !tbaa !3
  store ptr %2, ptr %6, align 8, !tbaa !3
  %7 = load ptr, ptr %4, align 8
  %8 = load ptr, ptr %5, align 8
  %9 = load ptr, ptr %8, align 8
  store ptr %9, ptr %7, align 8, !tbaa !14
  %10 = getelementptr inbounds ptr, ptr %8, i64 1
  %11 = load ptr, ptr %10, align 8
  %12 = load ptr, ptr %7, align 8, !tbaa !14
  %13 = getelementptr i8, ptr %12, i64 -40
  %14 = load i64, ptr %13, align 8
  %15 = getelementptr inbounds i8, ptr %7, i64 %14
  store ptr %11, ptr %15, align 8, !tbaa !14
  %16 = getelementptr inbounds nuw %"class.boost::archive::archive_exception", ptr %7, i32 0, i32 2
  %17 = load ptr, ptr %6, align 8, !tbaa !3
  %18 = getelementptr inbounds nuw %"class.boost::archive::archive_exception", ptr %17, i32 0, i32 2
  %19 = load i32, ptr %18, align 8, !tbaa !16
  store i32 %19, ptr %16, align 8, !tbaa !16
  %20 = getelementptr inbounds nuw %"class.boost::archive::archive_exception", ptr %7, i32 0, i32 1
  %21 = getelementptr inbounds [128 x i8], ptr %20, i64 0, i64 0
  %22 = load ptr, ptr %6, align 8, !tbaa !3
  %23 = getelementptr inbounds nuw %"class.boost::archive::archive_exception", ptr %22, i32 0, i32 1
  %24 = getelementptr inbounds [128 x i8], ptr %23, i64 0, i64 0
  call void @llvm.memcpy.p0.p0.i64(ptr align 8 %21, ptr align 8 %24, i64 128, i1 false)
  ret void
}