; Function Attrs: mustprogress nofree norecurse nosync nounwind willreturn memory(read, argmem: readwrite, inaccessiblemem: none) uwtable
define void @_ZN5boost7archive17archive_exceptionC2ERKS1_(ptr nocapture noundef nonnull writeonly align 8 dereferenceable(140) %0, ptr nocapture noundef readonly %1, ptr nocapture noundef nonnull readonly align 8 dereferenceable(140) %2) unnamed_addr #2 align 2 {
  %4 = load ptr, ptr %1, align 8
  store ptr %4, ptr %0, align 8, !tbaa !6
  %5 = getelementptr inbounds i8, ptr %1, i64 8
  %6 = load ptr, ptr %5, align 8
  %7 = getelementptr i8, ptr %4, i64 -40
  %8 = load i64, ptr %7, align 8
  %9 = getelementptr inbounds i8, ptr %0, i64 %8
  store ptr %6, ptr %9, align 8, !tbaa !6
  %10 = getelementptr inbounds nuw i8, ptr %0, i64 136
  %11 = getelementptr inbounds nuw i8, ptr %2, i64 136
  %12 = load i32, ptr %11, align 8, !tbaa !8
  store i32 %12, ptr %10, align 8, !tbaa !8
  %13 = getelementptr inbounds nuw i8, ptr %0, i64 8
  %14 = getelementptr inbounds nuw i8, ptr %2, i64 8
  tail call void @llvm.memcpy.p0.p0.i64(ptr noundef nonnull align 8 dereferenceable(128) %13, ptr noundef nonnull align 8 dereferenceable(128) %14, i64 128, i1 false)
  ret void
}